; ModuleID = 'source-C-CXX/12/1657.cpp'
source_filename = "source-C-CXX/12/1657.cpp"
target datalayout = "e-m:e-p270:32:32-p271:32:32-p272:64:64-i64:64-f80:128-n8:16:32:64-S128"
target triple = "x86_64-pc-linux-gnu"

%"class.std::ios_base::Init" = type { i8 }
%"class.std::basic_istream" = type { i32 (...)**, i64, %"class.std::basic_ios" }
%"class.std::basic_ios" = type { %"class.std::ios_base", %"class.std::basic_ostream"*, i8, i8, %"class.std::basic_streambuf"*, %"class.std::ctype"*, %"class.std::num_put"*, %"class.std::num_get"* }
%"class.std::ios_base" = type { i32 (...)**, i64, i64, i32, i32, i32, %"struct.std::ios_base::_Callback_list"*, %"struct.std::ios_base::_Words", [8 x %"struct.std::ios_base::_Words"], i32, %"struct.std::ios_base::_Words"*, %"class.std::locale" }
%"struct.std::ios_base::_Callback_list" = type { %"struct.std::ios_base::_Callback_list"*, void (i32, %"class.std::ios_base"*, i32)*, i32, i32 }
%"struct.std::ios_base::_Words" = type { i8*, i64 }
%"class.std::locale" = type { %"class.std::locale::_Impl"* }
%"class.std::locale::_Impl" = type { i32, %"class.std::locale::facet"**, i64, %"class.std::locale::facet"**, i8** }
%"class.std::locale::facet" = type <{ i32 (...)**, i32, [4 x i8] }>
%"class.std::basic_ostream" = type { i32 (...)**, %"class.std::basic_ios" }
%"class.std::basic_streambuf" = type { i32 (...)**, i8*, i8*, i8*, i8*, i8*, i8*, %"class.std::locale" }
%"class.std::ctype" = type <{ %"class.std::locale::facet.base", [4 x i8], %struct.__locale_struct*, i8, [7 x i8], i32*, i32*, i16*, i8, [256 x i8], [256 x i8], i8, [6 x i8] }>
%"class.std::locale::facet.base" = type <{ i32 (...)**, i32 }>
%struct.__locale_struct = type { [13 x %struct.__locale_data*], i16*, i32*, i32*, [13 x i8*] }
%struct.__locale_data = type opaque
%"class.std::num_put" = type { %"class.std::locale::facet.base", [4 x i8] }
%"class.std::num_get" = type { %"class.std::locale::facet.base", [4 x i8] }

@_ZStL8__ioinit = internal global %"class.std::ios_base::Init" zeroinitializer, align 1
@__dso_handle = external hidden global i8
@_ZSt3cin = external global %"class.std::basic_istream", align 8
@_ZSt4cout = external global %"class.std::basic_ostream", align 8
@.str = private unnamed_addr constant [2 x i8] c" \00", align 1
@llvm.global_ctors = appending global [1 x { i32, void ()*, i8* }] [{ i32, void ()*, i8* } { i32 65535, void ()* @_GLOBAL__sub_I_1657.cpp, i8* null }]

declare void @_ZNSt8ios_base4InitC1Ev(%"class.std::ios_base::Init"* nonnull align 1 dereferenceable(1)) unnamed_addr #0

; Function Attrs: nounwind
declare void @_ZNSt8ios_base4InitD1Ev(%"class.std::ios_base::Init"* nonnull align 1 dereferenceable(1)) unnamed_addr #1

; Function Attrs: nofree nounwind
declare i32 @__cxa_atexit(void (i8*)*, i8*, i8*) local_unnamed_addr #2

; Function Attrs: mustprogress norecurse sspstrong uwtable
define dso_local i32 @main() local_unnamed_addr #3 {
  %1 = alloca [20000 x i32], align 16
  %2 = alloca i32, align 4
  %3 = bitcast [20000 x i32]* %1 to i8*
  call void @llvm.lifetime.start.p0i8(i64 80000, i8* nonnull %3) #6
  %4 = bitcast i32* %2 to i8*
  call void @llvm.lifetime.start.p0i8(i64 4, i8* nonnull %4) #6
  %5 = call nonnull align 8 dereferenceable(16) %"class.std::basic_istream"* @_ZNSirsERi(%"class.std::basic_istream"* nonnull align 8 dereferenceable(16) @_ZSt3cin, i32* nonnull align 4 dereferenceable(4) %2)
  %6 = load i32, i32* %2, align 4, !tbaa !5
  %7 = icmp sgt i32 %6, 0
  br i1 %7, label %8, label %50

8:                                                ; preds = %0, %42
  %9 = phi i64 [ %43, %42 ], [ 0, %0 ]
  %10 = getelementptr inbounds [20000 x i32], [20000 x i32]* %1, i64 0, i64 %9
  %11 = call nonnull align 8 dereferenceable(16) %"class.std::basic_istream"* @_ZNSirsERi(%"class.std::basic_istream"* nonnull align 8 dereferenceable(16) @_ZSt3cin, i32* nonnull align 4 dereferenceable(4) %10)
  %12 = icmp eq i64 %9, 0
  br i1 %12, label %42, label %13

13:                                               ; preds = %8
  %14 = load i32, i32* %10, align 4, !tbaa !5
  %15 = and i64 %9, 1
  %16 = icmp eq i64 %9, 1
  br i1 %16, label %33, label %17

17:                                               ; preds = %13
  %18 = and i64 %9, 9223372036854775806
  br label %19

19:                                               ; preds = %73, %17
  %20 = phi i32 [ %14, %17 ], [ %74, %73 ]
  %21 = phi i64 [ 0, %17 ], [ %75, %73 ]
  %22 = phi i64 [ %18, %17 ], [ %76, %73 ]
  %23 = getelementptr inbounds [20000 x i32], [20000 x i32]* %1, i64 0, i64 %21
  %24 = load i32, i32* %23, align 8, !tbaa !5
  %25 = icmp eq i32 %24, %20
  br i1 %25, label %26, label %27

26:                                               ; preds = %19
  store i32 0, i32* %10, align 4, !tbaa !5
  br label %27

27:                                               ; preds = %19, %26
  %28 = phi i32 [ %20, %19 ], [ 0, %26 ]
  %29 = or i64 %21, 1
  %30 = getelementptr inbounds [20000 x i32], [20000 x i32]* %1, i64 0, i64 %29
  %31 = load i32, i32* %30, align 4, !tbaa !5
  %32 = icmp eq i32 %31, %28
  br i1 %32, label %72, label %73

33:                                               ; preds = %73, %13
  %34 = phi i32 [ %14, %13 ], [ %74, %73 ]
  %35 = phi i64 [ 0, %13 ], [ %75, %73 ]
  %36 = icmp eq i64 %15, 0
  br i1 %36, label %42, label %37

37:                                               ; preds = %33
  %38 = getelementptr inbounds [20000 x i32], [20000 x i32]* %1, i64 0, i64 %35
  %39 = load i32, i32* %38, align 4, !tbaa !5
  %40 = icmp eq i32 %39, %34
  br i1 %40, label %41, label %42

41:                                               ; preds = %37
  store i32 0, i32* %10, align 4, !tbaa !5
  br label %42

42:                                               ; preds = %33, %37, %41, %8
  %43 = add nuw nsw i64 %9, 1
  %44 = load i32, i32* %2, align 4, !tbaa !5
  %45 = sext i32 %44 to i64
  %46 = icmp slt i64 %43, %45
  br i1 %46, label %8, label %47, !llvm.loop !9

47:                                               ; preds = %42
  %48 = getelementptr inbounds [20000 x i32], [20000 x i32]* %1, i64 0, i64 0
  %49 = load i32, i32* %48, align 16, !tbaa !5
  br label %50

50:                                               ; preds = %47, %0
  %51 = phi i32 [ %49, %47 ], [ undef, %0 ]
  %52 = call nonnull align 8 dereferenceable(8) %"class.std::basic_ostream"* @_ZNSolsEi(%"class.std::basic_ostream"* nonnull align 8 dereferenceable(8) @_ZSt4cout, i32 %51)
  %53 = load i32, i32* %2, align 4, !tbaa !5
  %54 = icmp sgt i32 %53, 1
  br i1 %54, label %55, label %71

55:                                               ; preds = %50, %66
  %56 = phi i32 [ %67, %66 ], [ %53, %50 ]
  %57 = phi i64 [ %68, %66 ], [ 1, %50 ]
  %58 = getelementptr inbounds [20000 x i32], [20000 x i32]* %1, i64 0, i64 %57
  %59 = load i32, i32* %58, align 4, !tbaa !5
  %60 = icmp eq i32 %59, 0
  br i1 %60, label %66, label %61

61:                                               ; preds = %55
  %62 = call nonnull align 8 dereferenceable(8) %"class.std::basic_ostream"* @_ZSt16__ostream_insertIcSt11char_traitsIcEERSt13basic_ostreamIT_T0_ES6_PKS3_l(%"class.std::basic_ostream"* nonnull align 8 dereferenceable(8) @_ZSt4cout, i8* nonnull getelementptr inbounds ([2 x i8], [2 x i8]* @.str, i64 0, i64 0), i64 1)
  %63 = load i32, i32* %58, align 4, !tbaa !5
  %64 = call nonnull align 8 dereferenceable(8) %"class.std::basic_ostream"* @_ZNSolsEi(%"class.std::basic_ostream"* nonnull align 8 dereferenceable(8) @_ZSt4cout, i32 %63)
  %65 = load i32, i32* %2, align 4, !tbaa !5
  br label %66

66:                                               ; preds = %55, %61
  %67 = phi i32 [ %56, %55 ], [ %65, %61 ]
  %68 = add nuw nsw i64 %57, 1
  %69 = sext i32 %67 to i64
  %70 = icmp slt i64 %68, %69
  br i1 %70, label %55, label %71, !llvm.loop !11

71:                                               ; preds = %66, %50
  call void @llvm.lifetime.end.p0i8(i64 4, i8* nonnull %4) #6
  call void @llvm.lifetime.end.p0i8(i64 80000, i8* nonnull %3) #6
  ret i32 0

72:                                               ; preds = %27
  store i32 0, i32* %10, align 4, !tbaa !5
  br label %73

73:                                               ; preds = %72, %27
  %74 = phi i32 [ %28, %27 ], [ 0, %72 ]
  %75 = add nuw nsw i64 %21, 2
  %76 = add i64 %22, -2
  %77 = icmp eq i64 %76, 0
  br i1 %77, label %33, label %19, !llvm.loop !12
}

; Function Attrs: argmemonly mustprogress nofree nosync nounwind willreturn
declare void @llvm.lifetime.start.p0i8(i64 immarg, i8* nocapture) #4

declare nonnull align 8 dereferenceable(16) %"class.std::basic_istream"* @_ZNSirsERi(%"class.std::basic_istream"* nonnull align 8 dereferenceable(16), i32* nonnull align 4 dereferenceable(4)) local_unnamed_addr #0

declare nonnull align 8 dereferenceable(8) %"class.std::basic_ostream"* @_ZNSolsEi(%"class.std::basic_ostream"* nonnull align 8 dereferenceable(8), i32) local_unnamed_addr #0

; Function Attrs: argmemonly mustprogress nofree nosync nounwind willreturn
declare void @llvm.lifetime.end.p0i8(i64 immarg, i8* nocapture) #4

declare nonnull align 8 dereferenceable(8) %"class.std::basic_ostream"* @_ZSt16__ostream_insertIcSt11char_traitsIcEERSt13basic_ostreamIT_T0_ES6_PKS3_l(%"class.std::basic_ostream"* nonnull align 8 dereferenceable(8), i8*, i64) local_unnamed_addr #0

; Function Attrs: sspstrong uwtable
define internal void @_GLOBAL__sub_I_1657.cpp() #5 section ".text.startup" {
  tail call void @_ZNSt8ios_base4InitC1Ev(%"class.std::ios_base::Init"* nonnull align 1 dereferenceable(1) @_ZStL8__ioinit)
  %1 = tail call i32 @__cxa_atexit(void (i8*)* bitcast (void (%"class.std::ios_base::Init"*)* @_ZNSt8ios_base4InitD1Ev to void (i8*)*), i8* getelementptr inbounds (%"class.std::ios_base::Init", %"class.std::ios_base::Init"* @_ZStL8__ioinit, i64 0, i32 0), i8* nonnull @__dso_handle) #6
  ret void
}


!llvm.module.flags = !{!0, !1, !2, !3}
!llvm.ident = !{!4}

!0 = !{i32 1, !"wchar_size", i32 4}
!1 = !{i32 7, !"PIC Level", i32 2}
!2 = !{i32 7, !"PIE Level", i32 2}
!3 = !{i32 7, !"uwtable", i32 1}
!4 = !{!"clang version 13.0.0"}
!5 = !{!6, !6, i64 0}
!6 = !{!"int", !7, i64 0}
!7 = !{!"omnipotent char", !8, i64 0}
!8 = !{!"Simple C++ TBAA"}
!9 = distinct !{!9, !10}
!10 = !{!"llvm.loop.mustprogress"}
!11 = distinct !{!11, !10}
!12 = distinct !{!12, !10}
